; Function Attrs: mustprogress uwtable
define internal fastcc noundef i32 @_ZN2vaL6readIdEPKcS1_(ptr noundef %0, ptr noundef %1) unnamed_addr #3 personality ptr @__gxx_personality_v0 {
  %3 = alloca %"class.std::__cxx11::basic_string", align 8
  %4 = alloca [16 x i8], align 16
  call void @llvm.lifetime.start.p0(i64 32, ptr nonnull %3) #25
  call void (ptr, ptr, ...) @_ZN2cv6formatB5cxx11EPKcz(ptr dead_on_unwind nonnull writable sret(%"class.std::__cxx11::basic_string") align 8 %3, ptr noundef nonnull @.str.10, ptr noundef nonnull @.str.7, ptr noundef %0, ptr noundef %1)
  %5 = load ptr, ptr %3, align 8, !tbaa !21
  %6 = call noalias ptr @fopen(ptr noundef %5, ptr noundef nonnull @.str.15)
  %.not = icmp eq ptr %6, null
  br i1 %.not, label %14, label %7

7:                                                ; preds = %2
  call void @llvm.lifetime.start.p0(i64 16, ptr nonnull %4) #25
  call void @llvm.memset.p0.i64(ptr noundef nonnull align 16 dereferenceable(16) %4, i8 0, i64 16, i1 false)
  %8 = call ptr @fgets(ptr noundef nonnull %4, i32 noundef 16, ptr noundef nonnull %6)
  %.not6 = icmp eq ptr %8, null
  br i1 %.not6, label %12, label %9

9:                                                ; preds = %7
  %10 = call i64 @strtol(ptr noundef nonnull captures(none) %4, ptr noundef null, i32 noundef 16) #25
  %11 = trunc i64 %10 to i32
  br label %12

12:                                               ; preds = %9, %7
  %.1 = phi i32 [ %11, %9 ], [ 0, %7 ]
  %13 = call i32 @fclose(ptr noundef nonnull %6)
  call void @llvm.lifetime.end.p0(i64 16, ptr nonnull %4) #25
  br label %14

14:                                               ; preds = %12, %2
  %.0 = phi i32 [ %.1, %12 ], [ 0, %2 ]
  %15 = load ptr, ptr %3, align 8, !tbaa !21
  %16 = getelementptr inbounds nuw i8, ptr %3, i64 16
  %17 = icmp eq ptr %15, %16
  br i1 %17, label %_ZNKSt7__cxx1112basic_stringIcSt11char_traitsIcESaIcEE11_M_is_localEv.exit.thread.i.i, label %_ZNKSt7__cxx1112basic_stringIcSt11char_traitsIcESaIcEE11_M_is_localEv.exit.i.i

_ZNKSt7__cxx1112basic_stringIcSt11char_traitsIcESaIcEE11_M_is_localEv.exit.thread.i.i: ; preds = %14
  %18 = getelementptr inbounds nuw i8, ptr %3, i64 8
  %19 = load i64, ptr %18, align 8, !tbaa !28
  %20 = icmp ult i64 %19, 16
  call void @llvm.assume(i1 %20)
  br label %_ZNSt7__cxx1112basic_stringIcSt11char_traitsIcESaIcEED2Ev.exit

_ZNKSt7__cxx1112basic_stringIcSt11char_traitsIcESaIcEE11_M_is_localEv.exit.i.i: ; preds = %14
  call void @_ZdlPv(ptr noundef %15) #27
  br label %_ZNSt7__cxx1112basic_stringIcSt11char_traitsIcESaIcEED2Ev.exit

_ZNSt7__cxx1112basic_stringIcSt11char_traitsIcESaIcEED2Ev.exit: ; preds = %_ZNKSt7__cxx1112basic_stringIcSt11char_traitsIcESaIcEE11_M_is_localEv.exit.thread.i.i, %_ZNKSt7__cxx1112basic_stringIcSt11char_traitsIcESaIcEE11_M_is_localEv.exit.i.i
  call void @llvm.lifetime.end.p0(i64 32, ptr nonnull %3) #25
  ret i32 %.0
}